; Function Attrs: null_pointer_is_valid sspstrong uwtable
define internal noundef zeroext i16 @de_tp_epc_ue_tl_e_setup(ptr noundef %0, ptr noundef %1, ptr readnone captures(none) %2, i32 noundef %3, i32 noundef %4, ptr readnone captures(none) %5, i32 %6) #1 {
  %8 = load i32, ptr @hf_gsm_a_spare_bits, align 4
  %9 = shl i32 %3, 3
  %10 = tail call ptr @proto_tree_add_bits_item(ptr noundef %1, i32 noundef %8, ptr noundef %0, i32 noundef %9, i32 noundef 7, i32 noundef 0)
  %11 = load i32, ptr @hf_gsm_a_dtap_epc_ue_tl_e_communication, align 4
  %12 = tail call ptr @proto_tree_add_item(ptr noundef %1, i32 noundef %11, ptr noundef %0, i32 noundef %3, i32 noundef 1, i32 noundef 0)
  %13 = icmp ugt i32 %4, 1
  br i1 %13, label %.lr.ph.preheader, label %._crit_edge

.lr.ph.preheader:                                 ; preds = %7
  %.017 = add i32 %3, 1
  br label %.lr.ph

.lr.ph:                                           ; preds = %.lr.ph.preheader, %.lr.ph
  %.018 = phi i32 [ %.0, %.lr.ph ], [ %.017, %.lr.ph.preheader ]
  %14 = load i32, ptr @hf_gsm_a_dtap_epc_ue_tl_e_group_destination_id, align 4
  %15 = tail call ptr @proto_tree_add_item(ptr noundef %1, i32 noundef %14, ptr noundef %0, i32 noundef %.018, i32 noundef 1, i32 noundef 0)
  %.0 = add i32 %.018, 1
  %16 = sub i32 %.0, %3
  %17 = icmp ult i32 %16, %4
  br i1 %17, label %.lr.ph, label %._crit_edge.loopexit, !llvm.loop !14

._crit_edge.loopexit:                             ; preds = %.lr.ph
  %18 = trunc i32 %4 to i16
  br label %._crit_edge

._crit_edge:                                      ; preds = %._crit_edge.loopexit, %7
  %.lcssa = phi i16 [ 1, %7 ], [ %18, %._crit_edge.loopexit ]
  ret i16 %.lcssa
}